; Function Attrs: mustprogress nounwind uwtable
define hidden void @_ZN17ThreadsSMRSupport10add_threadEP10JavaThread(ptr noundef %0) local_unnamed_addr #1 align 2 {
  %2 = load volatile ptr, ptr @_ZN17ThreadsSMRSupport17_java_thread_listE, align 8
  tail call void asm sideeffect "", "~{memory},~{dirflag},~{fpsr},~{flags}"() #15, !srcloc !6
  %3 = tail call noundef ptr @_ZN11ThreadsList10add_threadEPS_P10JavaThread(ptr noundef %2, ptr noundef %0)
  %4 = load i8, ptr @EnableThreadSMRStatistics, align 1
  %5 = trunc i8 %4 to i1
  br i1 %5, label %6, label %_ZN17ThreadsSMRSupport27update_java_thread_list_maxEj.exit

6:                                                ; preds = %1
  %7 = load i64, ptr @_ZN17ThreadsSMRSupport27_java_thread_list_alloc_cntE, align 8
  %8 = add i64 %7, 1
  store i64 %8, ptr @_ZN17ThreadsSMRSupport27_java_thread_list_alloc_cntE, align 8
  %9 = getelementptr inbounds i8, ptr %3, i64 4
  %10 = load i32, ptr %9, align 4
  %11 = load i32, ptr @_ZN17ThreadsSMRSupport21_java_thread_list_maxE, align 4
  %12 = icmp ult i32 %11, %10
  br i1 %12, label %13, label %_ZN17ThreadsSMRSupport27update_java_thread_list_maxEj.exit

13:                                               ; preds = %6
  store i32 %10, ptr @_ZN17ThreadsSMRSupport21_java_thread_list_maxE, align 4
  br label %_ZN17ThreadsSMRSupport27update_java_thread_list_maxEj.exit

_ZN17ThreadsSMRSupport27update_java_thread_list_maxEj.exit: ; preds = %13, %6, %1
  %14 = load volatile ptr, ptr getelementptr inbounds (i8, ptr @_ZN16LogTagSetMappingILN6LogTag4typeE159ELS1_137ELS1_0ELS1_0ELS1_0ELS1_0EE7_tagsetE, i64 56), align 8
  %.not = icmp eq ptr %14, null
  br i1 %.not, label %18, label %15

15:                                               ; preds = %_ZN17ThreadsSMRSupport27update_java_thread_list_maxEj.exit
  %16 = tail call noundef i64 @_ZN2os17current_thread_idEv() #15
  %17 = ptrtoint ptr %3 to i64
  tail call void (ptr, ...) @_ZN7LogImplILN6LogTag4typeE159ELS1_137ELS1_0ELS1_0ELS1_0ELS1_0EE5writeILN8LogLevel4typeE2EEEvPKcz(ptr noundef nonnull @.str.6, i64 noundef %16, i64 noundef %17)
  br label %18

18:                                               ; preds = %_ZN17ThreadsSMRSupport27update_java_thread_list_maxEj.exit, %15
  %19 = tail call noundef ptr asm sideeffect "xchgq ($2),$0", "=r,0,r,~{memory},~{dirflag},~{fpsr},~{flags}"(ptr %3, ptr nonnull @_ZN17ThreadsSMRSupport17_java_thread_listE) #15, !srcloc !18
  tail call void @_ZN17ThreadsSMRSupport9free_listEP11ThreadsList(ptr noundef %19)
  %20 = load volatile i8, ptr @_ZN13ThreadIdTable15_is_initializedE, align 1
  %21 = trunc i8 %20 to i1
  br i1 %21, label %22, label %25

22:                                               ; preds = %18
  %23 = tail call noundef i64 @_ZN13SharedRuntime12get_java_tidEP10JavaThread(ptr noundef %0) #15
  %24 = tail call noundef ptr @_ZN13ThreadIdTable10add_threadElP10JavaThread(i64 noundef %23, ptr noundef %0) #15
  br label %25

25:                                               ; preds = %22, %18
  ret void
}